; Function Attrs: mustprogress uwtable
define noundef zeroext i1 @_ZNK32pxrInternal_v0_24__pxrReserved__17UsdAttributeQuery24GetBracketingTimeSamplesEdPdS1_Pb(ptr noundef nonnull align 8 dereferenceable(120) %0, double noundef %1, ptr noundef %2, ptr noundef %3, ptr noundef %4) local_unnamed_addr #0 align 2 {
  %6 = getelementptr inbounds nuw i8, ptr %0, i64 8
  %7 = load ptr, ptr %6, align 8
  %.not.i.i = icmp eq ptr %7, null
  br i1 %.not.i.i, label %12, label %8

8:                                                ; preds = %5
  %9 = getelementptr inbounds nuw i8, ptr %7, i64 56
  %10 = load i64, ptr %9, align 8
  %11 = and i64 %10, 2048
  %.not5.i.i = icmp eq i64 %11, 0
  br i1 %.not5.i.i, label %_ZNK32pxrInternal_v0_24__pxrReserved__9UsdObject9_GetStageEv.exit, label %12

12:                                               ; preds = %8, %5
  tail call void @_ZN32pxrInternal_v0_24__pxrReserved__31Usd_ThrowExpiredPrimAccessErrorEPKNS_12Usd_PrimDataE(ptr noundef %7)
  br label %_ZNK32pxrInternal_v0_24__pxrReserved__9UsdObject9_GetStageEv.exit

_ZNK32pxrInternal_v0_24__pxrReserved__9UsdObject9_GetStageEv.exit: ; preds = %8, %12
  %13 = load ptr, ptr %7, align 8
  %14 = getelementptr inbounds nuw i8, ptr %0, i64 32
  %15 = tail call noundef zeroext i1 @_ZNK32pxrInternal_v0_24__pxrReserved__8UsdStage40_GetBracketingTimeSamplesFromResolveInfoERKNS_14UsdResolveInfoERKNS_12UsdAttributeEdbPdS7_Pb(ptr noundef nonnull align 8 dereferenceable(1282) %13, ptr noundef nonnull align 8 dereferenceable(77) %14, ptr noundef nonnull align 8 dereferenceable(32) %0, double noundef %1, i1 noundef zeroext false, ptr noundef %2, ptr noundef %3, ptr noundef %4)
  ret i1 %15
}